; Function Attrs: mustprogress nofree norecurse nosync nounwind willreturn memory(read, inaccessiblemem: none) uwtable
define noundef zeroext i1 @_ZNK32pxrInternal_v0_24__pxrReserved__7GfVec2heqERKNS_7GfVec2fE(ptr nocapture noundef nonnull readonly align 2 dereferenceable(4) %0, ptr nocapture noundef nonnull readonly align 4 dereferenceable(8) %1) local_unnamed_addr #2 align 2 {
  %3 = load i16, ptr %0, align 2
  %4 = zext i16 %3 to i64
  %5 = getelementptr inbounds [65536 x %"union.pxrInternal_v0_24__pxrReserved__::pxr_half::half::uif"], ptr @_ZN32pxrInternal_v0_24__pxrReserved__8pxr_half4half8_toFloatE, i64 0, i64 %4
  %6 = load float, ptr %5, align 4
  %7 = load float, ptr %1, align 4
  %8 = fcmp oeq float %6, %7
  br i1 %8, label %9, label %18

9:                                                ; preds = %2
  %10 = getelementptr inbounds i8, ptr %0, i64 2
  %11 = load i16, ptr %10, align 2
  %12 = zext i16 %11 to i64
  %13 = getelementptr inbounds [65536 x %"union.pxrInternal_v0_24__pxrReserved__::pxr_half::half::uif"], ptr @_ZN32pxrInternal_v0_24__pxrReserved__8pxr_half4half8_toFloatE, i64 0, i64 %12
  %14 = load float, ptr %13, align 4
  %15 = getelementptr inbounds i8, ptr %1, i64 4
  %16 = load float, ptr %15, align 4
  %17 = fcmp oeq float %14, %16
  br label %18

18:                                               ; preds = %9, %2
  %19 = phi i1 [ false, %2 ], [ %17, %9 ]
  ret i1 %19
}